
mainmpi.o:     file format ss-coff-little

Disassembly of section .text:

00000000 <main>:
#include <stdlib.h>
#include <string.h>
#include "../ssapi/ssmpi.h"
void main(){
   0:	43 00 00 00 	addiu $29,$29,-72
   4:	b8 ff 1d 1d 
   8:	34 00 00 00 	sw $31,68($29)
   c:	44 00 1f 1d 
  10:	34 00 00 00 	sw $30,64($29)
  14:	40 00 1e 1d 
  18:	42 00 00 00 	addu $30,$0,$29
  1c:	00 1e 1d 00 
  20:	02 00 00 00 	jal 0 <main>
  24:	00 00 00 00 
  28:	02 00 00 00 	jal 0 <main>
  2c:	00 00 00 00 
  30:	34 00 00 00 	sw $2,32($30)
  34:	20 00 02 1e 
  38:	a2 00 00 00 	lui $4,0
  3c:	00 00 04 00 
  40:	43 00 00 00 	addiu $4,$4,1072
  44:	30 04 04 04 
  48:	28 00 00 00 	lw $5,32($30)
  4c:	20 00 05 1e 
  50:	02 00 00 00 	jal 0 <main>
  54:	00 00 00 00 
  58:	28 00 00 00 	lw $2,32($30)
  5c:	20 00 02 1e 
  60:	06 00 00 00 	bne $2,$0,1c8 <main+0x1c8>
  64:	58 00 00 02 
  68:	43 00 00 00 	addiu $2,$0,199
  6c:	c7 00 02 00 
  70:	34 00 00 00 	sw $2,36($30)
  74:	24 00 02 1e 
  78:	43 00 00 00 	addiu $4,$0,48
  7c:	30 00 04 00 
  80:	02 00 00 00 	jal 0 <main>
  84:	00 00 00 00 
  88:	34 00 00 00 	sw $2,40($30)
  8c:	28 00 02 1e 
  90:	43 00 00 00 	addiu $4,$0,48
  94:	30 00 04 00 
  98:	02 00 00 00 	jal 0 <main>
  9c:	00 00 00 00 
  a0:	34 00 00 00 	sw $2,44($30)
  a4:	2c 00 02 1e 
  a8:	43 00 00 00 	addiu $2,$0,10
  ac:	0a 00 02 00 
  b0:	34 00 00 00 	sw $2,48($30)
  b4:	30 00 02 1e 
  b8:	43 00 00 00 	addiu $2,$28,-16384
  bc:	00 c0 02 1c 
  c0:	34 00 00 00 	sw $2,52($30)
  c4:	34 00 02 1e 
  c8:	43 00 00 00 	addiu $2,$30,48
  cc:	30 00 02 1e 
  d0:	28 00 00 00 	lw $3,44($30)
  d4:	2c 00 03 1e 
  d8:	34 00 00 00 	sw $3,16($29)
  dc:	10 00 03 1d 
  e0:	43 00 00 00 	addiu $4,$0,1
  e4:	01 00 04 00 
  e8:	42 00 00 00 	addu $5,$0,$2
  ec:	00 05 02 00 
  f0:	43 00 00 00 	addiu $6,$0,8
  f4:	08 00 06 00 
  f8:	43 00 00 00 	addiu $7,$28,-16376
  fc:	08 c0 07 1c 
 100:	02 00 00 00 	jal 0 <main>
 104:	00 00 00 00 
 108:	43 00 00 00 	addiu $2,$30,36
 10c:	24 00 02 1e 
 110:	28 00 00 00 	lw $3,40($30)
 114:	28 00 03 1e 
 118:	34 00 00 00 	sw $3,16($29)
 11c:	10 00 03 1d 
 120:	43 00 00 00 	addiu $4,$0,1
 124:	01 00 04 00 
 128:	42 00 00 00 	addu $5,$0,$2
 12c:	00 05 02 00 
 130:	43 00 00 00 	addiu $6,$0,4
 134:	04 00 06 00 
 138:	43 00 00 00 	addiu $7,$28,-16368
 13c:	10 c0 07 1c 
 140:	02 00 00 00 	jal 0 <main>
 144:	00 00 00 00 
 148:	28 00 00 00 	lw $2,44($30)
 14c:	2c 00 02 1e 
 150:	28 00 00 00 	lw $3,44($30)
 154:	2c 00 03 1e 
 158:	29 00 00 00 	dlw $4,8($3)
 15c:	08 00 04 03 
 160:	35 00 00 00 	dsw $4,16($29)
 164:	10 00 04 1d 
 168:	a2 00 00 00 	lui $4,0
 16c:	00 00 04 00 
 170:	43 00 00 00 	addiu $4,$4,1088
 174:	40 04 04 04 
 178:	29 00 00 00 	dlw $6,16($2)
 17c:	10 00 06 02 
 180:	02 00 00 00 	jal 0 <main>
 184:	00 00 00 00 
 188:	28 00 00 00 	lw $2,40($30)
 18c:	28 00 02 1e 
 190:	28 00 00 00 	lw $3,40($30)
 194:	28 00 03 1e 
 198:	29 00 00 00 	dlw $4,8($3)
 19c:	08 00 04 03 
 1a0:	35 00 00 00 	dsw $4,16($29)
 1a4:	10 00 04 1d 
 1a8:	a2 00 00 00 	lui $4,0
 1ac:	00 00 04 00 
 1b0:	43 00 00 00 	addiu $4,$4,1144
 1b4:	78 04 04 04 
 1b8:	29 00 00 00 	dlw $6,16($2)
 1bc:	10 00 06 02 
 1c0:	02 00 00 00 	jal 0 <main>
 1c4:	00 00 00 00 
 1c8:	28 00 00 00 	lw $2,32($30)
 1cc:	20 00 02 1e 
 1d0:	43 00 00 00 	addiu $3,$0,1
 1d4:	01 00 03 00 
 1d8:	06 00 00 00 	bne $2,$3,400 <main+0x400>
 1dc:	88 00 03 02 
 1e0:	43 00 00 00 	addiu $4,$0,8
 1e4:	08 00 04 00 
 1e8:	02 00 00 00 	jal 0 <main>
 1ec:	00 00 00 00 
 1f0:	34 00 00 00 	sw $2,40($30)
 1f4:	28 00 02 1e 
 1f8:	43 00 00 00 	addiu $4,$0,48
 1fc:	30 00 04 00 
 200:	02 00 00 00 	jal 0 <main>
 204:	00 00 00 00 
 208:	34 00 00 00 	sw $2,56($30)
 20c:	38 00 02 1e 
 210:	43 00 00 00 	addiu $4,$0,48
 214:	30 00 04 00 
 218:	02 00 00 00 	jal 0 <main>
 21c:	00 00 00 00 
 220:	34 00 00 00 	sw $2,60($30)
 224:	3c 00 02 1e 
 228:	42 00 00 00 	addu $4,$0,$0
 22c:	00 04 00 00 
 230:	43 00 00 00 	addiu $5,$0,1
 234:	01 00 05 00 
 238:	43 00 00 00 	addiu $6,$28,-16376
 23c:	08 c0 06 1c 
 240:	02 00 00 00 	jal 0 <main>
 244:	00 00 00 00 
 248:	05 00 00 00 	beq $2,$0,288 <main+0x288>
 24c:	0e 00 00 02 
 250:	42 00 00 00 	addu $4,$0,$0
 254:	00 04 00 00 
 258:	43 00 00 00 	addiu $5,$0,1
 25c:	01 00 05 00 
 260:	43 00 00 00 	addiu $6,$28,-16376
 264:	08 c0 06 1c 
 268:	02 00 00 00 	jal 0 <main>
 26c:	00 00 00 00 
 270:	43 00 00 00 	addiu $3,$0,1
 274:	01 00 03 00 
 278:	05 00 00 00 	beq $2,$3,288 <main+0x288>
 27c:	02 00 03 02 
 280:	01 00 00 00 	j 290 <main+0x290>
 284:	a4 00 00 00 
 288:	01 00 00 00 	j 228 <main+0x228>
 28c:	8a 00 00 00 
 290:	42 00 00 00 	addu $4,$0,$0
 294:	00 04 00 00 
 298:	43 00 00 00 	addiu $5,$28,-16376
 29c:	08 c0 05 1c 
 2a0:	28 00 00 00 	lw $6,40($30)
 2a4:	28 00 06 1e 
 2a8:	28 00 00 00 	lw $7,60($30)
 2ac:	3c 00 07 1e 
 2b0:	02 00 00 00 	jal 0 <main>
 2b4:	00 00 00 00 
 2b8:	28 00 00 00 	lw $2,40($30)
 2bc:	28 00 02 1e 
 2c0:	28 00 00 00 	lw $3,40($30)
 2c4:	28 00 03 1e 
 2c8:	28 00 00 00 	lw $4,60($30)
 2cc:	3c 00 04 1e 
 2d0:	29 00 00 00 	dlw $6,40($4)
 2d4:	28 00 06 04 
 2d8:	35 00 00 00 	dsw $6,16($29)
 2dc:	10 00 06 1d 
 2e0:	28 00 00 00 	lw $4,60($30)
 2e4:	3c 00 04 1e 
 2e8:	29 00 00 00 	dlw $6,32($4)
 2ec:	20 00 06 04 
 2f0:	35 00 00 00 	dsw $6,24($29)
 2f4:	18 00 06 1d 
 2f8:	a2 00 00 00 	lui $4,0
 2fc:	00 00 04 00 
 300:	43 00 00 00 	addiu $4,$4,1196
 304:	ac 04 04 04 
 308:	28 00 00 00 	lw $5,0($2)
 30c:	00 00 05 02 
 310:	28 00 00 00 	lw $6,4($3)
 314:	04 00 06 03 
 318:	02 00 00 00 	jal 0 <main>
 31c:	00 00 00 00 
 320:	42 00 00 00 	addu $4,$0,$0
 324:	00 04 00 00 
 328:	43 00 00 00 	addiu $5,$0,1
 32c:	01 00 05 00 
 330:	43 00 00 00 	addiu $6,$28,-16368
 334:	10 c0 06 1c 
 338:	02 00 00 00 	jal 0 <main>
 33c:	00 00 00 00 
 340:	05 00 00 00 	beq $2,$0,380 <main+0x380>
 344:	0e 00 00 02 
 348:	42 00 00 00 	addu $4,$0,$0
 34c:	00 04 00 00 
 350:	43 00 00 00 	addiu $5,$0,1
 354:	01 00 05 00 
 358:	43 00 00 00 	addiu $6,$28,-16368
 35c:	10 c0 06 1c 
 360:	02 00 00 00 	jal 0 <main>
 364:	00 00 00 00 
 368:	43 00 00 00 	addiu $3,$0,1
 36c:	01 00 03 00 
 370:	05 00 00 00 	beq $2,$3,380 <main+0x380>
 374:	02 00 03 02 
 378:	01 00 00 00 	j 388 <main+0x388>
 37c:	e2 00 00 00 
 380:	01 00 00 00 	j 320 <main+0x320>
 384:	c8 00 00 00 
 388:	43 00 00 00 	addiu $2,$30,44
 38c:	2c 00 02 1e 
 390:	42 00 00 00 	addu $4,$0,$0
 394:	00 04 00 00 
 398:	43 00 00 00 	addiu $5,$28,-16368
 39c:	10 c0 05 1c 
 3a0:	42 00 00 00 	addu $6,$0,$2
 3a4:	00 06 02 00 
 3a8:	28 00 00 00 	lw $7,56($30)
 3ac:	38 00 07 1e 
 3b0:	02 00 00 00 	jal 0 <main>
 3b4:	00 00 00 00 
 3b8:	28 00 00 00 	lw $2,56($30)
 3bc:	38 00 02 1e 
 3c0:	28 00 00 00 	lw $3,56($30)
 3c4:	38 00 03 1e 
 3c8:	29 00 00 00 	dlw $4,32($3)
 3cc:	20 00 04 03 
 3d0:	35 00 00 00 	dsw $4,16($29)
 3d4:	10 00 04 1d 
 3d8:	a2 00 00 00 	lui $4,0
 3dc:	00 00 04 00 
 3e0:	43 00 00 00 	addiu $4,$4,1312
 3e4:	20 05 04 04 
 3e8:	28 00 00 00 	lw $5,44($30)
 3ec:	2c 00 05 1e 
 3f0:	29 00 00 00 	dlw $6,40($2)
 3f4:	28 00 06 02 
 3f8:	02 00 00 00 	jal 0 <main>
 3fc:	00 00 00 00 
 400:	42 00 00 00 	addu $29,$0,$30
 404:	00 1d 1e 00 
 408:	28 00 00 00 	lw $31,68($29)
 40c:	44 00 1f 1d 
 410:	28 00 00 00 	lw $30,64($29)
 414:	40 00 1e 1d 
 418:	43 00 00 00 	addiu $29,$29,72
 41c:	48 00 1d 1d 
 420:	03 00 00 00 	jr $31
 424:	00 00 00 1f 
	...
